; Function Attrs: mustprogress uwtable
define dso_local noundef zeroext i1 @_ZN9OutputMgr17is_monitored_funcEv() local_unnamed_addr #4 align 2 {
  %1 = load ptr, ptr @_ZN9OutputMgr16monitored_funcs_B5cxx11E, align 8
  %2 = load ptr, ptr getelementptr inbounds (%"class.std::vector", ptr @_ZN9OutputMgr16monitored_funcs_B5cxx11E, i64 0, i32 0, i32 0, i32 0, i32 1), align 8
  %3 = icmp eq ptr %1, %2
  br i1 %3, label %8, label %4

4:                                                ; preds = %0
  %5 = tail call ptr @_ZSt9__find_ifIN9__gnu_cxx17__normal_iteratorIPNSt7__cxx1112basic_stringIcSt11char_traitsIcESaIcEEESt6vectorIS7_SaIS7_EEEENS0_5__ops16_Iter_equals_valIKS7_EEET_SH_SH_T0_St26random_access_iterator_tag(ptr %1, ptr %2, ptr nonnull @_ZN9OutputMgr10curr_func_B5cxx11E)
  %6 = load ptr, ptr getelementptr inbounds (%"class.std::vector", ptr @_ZN9OutputMgr16monitored_funcs_B5cxx11E, i64 0, i32 0, i32 0, i32 0, i32 1), align 8
  %7 = icmp ne ptr %5, %6
  br label %8

8:                                                ; preds = %0, %4
  %.0 = phi i1 [ %7, %4 ], [ true, %0 ]
  ret i1 %.0
}